(dp0
S'm1nw0000pes_short.PAC'
p1
(dp2
S'a'
p3
S'1.3158'
p4
sS'Ap'
p5
(lp6
F0.612
aF0.3055
asS'Fb'
p7
F75.050735
sS'b'
p8
S'20.0000'
p9
sS'Aa'
p10
(lp11
F0.6311
aF0.2491
aF0.1458
aF0.3313
aF0.2983
aF0.3551
asS'T0p'
p12
(lp13
F-0.38
aF1.39
asS'I'
p14
I2
sS'T2a'
p15
(lp16
F0.3606
aF0.6719
aF1.0876
aF2.1472
aF2.6994
aF3.0744
asS'J'
p17
I6
sS'T1a'
p18
(lp19
F0.1713
aF0.4288
aF0.6981
aF1.8999
aF2.4011
aF2.8844
assS'sample.PAC'
p20
(dp21
g3
S'1.6316'
p22
sg5
(lp23
F0.1875
asg7
F181.851223
sg8
S'20.0000'
p24
sg10
(lp25
F0.2391
aF0.0678
asg12
(lp26
F-0.45
asg14
I1
sg15
(lp27
F0.1597
aF0.54
asg17
I2
sg18
(lp28
F0.0
aF0.17
ass.